; Function Attrs: mustprogress nounwind uwtable
define hidden void @_ZN7XTracer17send_stat_counterERK12XStatCountermm(ptr nocapture noundef nonnull readnone align 8 dereferenceable(80) %0, ptr noundef nonnull align 8 dereferenceable(72) %1, i64 noundef %2, i64 noundef %3) local_unnamed_addr #1 align 2 {
  %5 = alloca %class.EventZStatisticsCounter, align 8
  %6 = getelementptr inbounds i8, ptr %5, i64 17
  %7 = getelementptr inbounds i8, ptr %5, i64 18
  %8 = getelementptr inbounds i8, ptr %5, i64 8
  call void @llvm.memset.p0.i64(ptr noundef nonnull align 8 dereferenceable(11) %8, i8 0, i64 11, i1 false)
  %9 = load i8, ptr getelementptr inbounds (i8, ptr @_ZN15JfrEventSetting19_jvm_event_settingsE, i64 3617), align 1
  %10 = icmp eq i8 %9, 0
  br i1 %10, label %_ZN8JfrEventI23EventZStatisticsCounterE13should_commitEv.exit.thread, label %_ZN23EventZStatisticsCounterC2E14EventStartTime.exit

_ZN23EventZStatisticsCounterC2E14EventStartTime.exit: ; preds = %4
  %11 = tail call noundef i64 @_ZN33FastUnorderedElapsedCounterSource3nowEv() #10
  store i64 %11, ptr %5, align 8
  %.pr = load i8, ptr getelementptr inbounds (i8, ptr @_ZN15JfrEventSetting19_jvm_event_settingsE, i64 3617), align 1
  %.not.i = icmp eq i8 %.pr, 0
  br i1 %.not.i, label %_ZN8JfrEventI23EventZStatisticsCounterE13should_commitEv.exit.thread, label %12

12:                                               ; preds = %_ZN23EventZStatisticsCounterC2E14EventStartTime.exit
  %13 = icmp eq i64 %11, 0
  br i1 %13, label %14, label %16

14:                                               ; preds = %12
  %15 = tail call noundef i64 @_ZN33FastUnorderedElapsedCounterSource3nowEv() #10
  store i64 %15, ptr %5, align 8
  br label %_ZN8JfrEventI23EventZStatisticsCounterE13should_commitEv.exit

16:                                               ; preds = %12
  %17 = getelementptr inbounds i8, ptr %5, i64 8
  %18 = tail call noundef i64 @_ZN33FastUnorderedElapsedCounterSource3nowEv() #10
  store i64 %18, ptr %17, align 8
  br label %_ZN8JfrEventI23EventZStatisticsCounterE13should_commitEv.exit

_ZN8JfrEventI23EventZStatisticsCounterE13should_commitEv.exit: ; preds = %14, %16
  %19 = phi i64 [ %11, %16 ], [ %15, %14 ]
  %20 = phi i64 [ %18, %16 ], [ 0, %14 ]
  %21 = sub nsw i64 %20, %19
  %22 = load i64, ptr getelementptr inbounds (i8, ptr @_ZN15JfrEventSetting19_jvm_event_settingsE, i64 3600), align 8
  %23 = icmp sge i64 %21, %22
  %24 = zext i1 %23 to i8
  store i8 %24, ptr %6, align 1
  store i8 1, ptr %7, align 2
  br i1 %23, label %_ZN8JfrEventI23EventZStatisticsCounterE13should_commitEv.exit.thread4, label %_ZN8JfrEventI23EventZStatisticsCounterE13should_commitEv.exit.thread

_ZN8JfrEventI23EventZStatisticsCounterE13should_commitEv.exit.thread4: ; preds = %_ZN8JfrEventI23EventZStatisticsCounterE13should_commitEv.exit
  %25 = tail call noundef i32 @_ZNK10XStatValue2idEv(ptr noundef nonnull align 8 dereferenceable(24) %1) #10
  %26 = zext i32 %25 to i64
  %27 = getelementptr inbounds i8, ptr %5, i64 24
  store i64 %26, ptr %27, align 8
  %28 = getelementptr inbounds i8, ptr %5, i64 32
  store i64 %2, ptr %28, align 8
  %29 = getelementptr inbounds i8, ptr %5, i64 40
  store i64 %3, ptr %29, align 8
  call void @_ZN8JfrEventI23EventZStatisticsCounterE6commitEv(ptr noundef nonnull align 8 dereferenceable(19) %5)
  br label %_ZN8JfrEventI23EventZStatisticsCounterE13should_commitEv.exit.thread

_ZN8JfrEventI23EventZStatisticsCounterE13should_commitEv.exit.thread: ; preds = %4, %_ZN23EventZStatisticsCounterC2E14EventStartTime.exit, %_ZN8JfrEventI23EventZStatisticsCounterE13should_commitEv.exit.thread4, %_ZN8JfrEventI23EventZStatisticsCounterE13should_commitEv.exit
  ret void
}